target datalayout = "e-m:e-p270:32:32-p271:32:32-p272:64:64-i64:64-i128:128-f80:128-n8:16:32:64-S128"
target triple = "x86_64-pc-linux-gnu"

%struct.lxb_html_tree = type { ptr, ptr, ptr, ptr, ptr, ptr, ptr, %struct.lxb_html_tree_pending_table_t, ptr, i8, i8, i8, i8, i8, i8, ptr, ptr, ptr, i32, i64 }
%struct.lxb_html_tree_pending_table_t = type { ptr, i8 }
%struct.lxb_dom_node = type { %struct.lxb_dom_event_target, i64, i64, i64, ptr, ptr, ptr, ptr, ptr, ptr, ptr, i32, i64 }
%struct.lxb_dom_event_target = type { ptr }
%struct.lexbor_array_t = type { ptr, i64, i64 }

; Function Attrs: nounwind uwtable
define internal ptr @lxb_html_tree_open_elements_pop(ptr noundef %0) #0 {
  %2 = alloca ptr, align 8
  store ptr %0, ptr %2, align 8
  %3 = load ptr, ptr %2, align 8
  %4 = getelementptr inbounds %struct.lxb_html_tree, ptr %3, i32 0, i32 4
  %5 = load ptr, ptr %4, align 8
  %6 = call ptr @lexbor_array_pop(ptr noundef %5)
  ret ptr %6
}

; Function Attrs: nounwind uwtable
define internal ptr @lxb_html_tree_current_node(ptr noundef %0) #0 {
  %2 = alloca ptr, align 8
  %3 = alloca ptr, align 8
  store ptr %0, ptr %3, align 8
  %4 = load ptr, ptr %3, align 8
  %5 = getelementptr inbounds %struct.lxb_html_tree, ptr %4, i32 0, i32 4
  %6 = load ptr, ptr %5, align 8
  %7 = getelementptr inbounds %struct.lexbor_array_t, ptr %6, i32 0, i32 2
  %8 = load i64, ptr %7, align 8
  %9 = icmp eq i64 %8, 0
  br i1 %9, label %10, label %11

10:                                               ; preds = %1
  store ptr null, ptr %2, align 8
  br label %25

11:                                               ; preds = %1
  %12 = load ptr, ptr %3, align 8
  %13 = getelementptr inbounds %struct.lxb_html_tree, ptr %12, i32 0, i32 4
  %14 = load ptr, ptr %13, align 8
  %15 = getelementptr inbounds %struct.lexbor_array_t, ptr %14, i32 0, i32 0
  %16 = load ptr, ptr %15, align 8
  %17 = load ptr, ptr %3, align 8
  %18 = getelementptr inbounds %struct.lxb_html_tree, ptr %17, i32 0, i32 4
  %19 = load ptr, ptr %18, align 8
  %20 = getelementptr inbounds %struct.lexbor_array_t, ptr %19, i32 0, i32 2
  %21 = load i64, ptr %20, align 8
  %22 = sub i64 %21, 1
  %23 = getelementptr inbounds ptr, ptr %16, i64 %22
  %24 = load ptr, ptr %23, align 8
  store ptr %24, ptr %2, align 8
  br label %25

25:                                               ; preds = %11, %10
  %26 = load ptr, ptr %2, align 8
  ret ptr %26
}

; Function Attrs: nounwind uwtable
define internal i64 @lexbor_array_length(ptr noundef %0) #0 {
  %2 = alloca ptr, align 8
  store ptr %0, ptr %2, align 8
  %3 = load ptr, ptr %2, align 8
  %4 = getelementptr inbounds %struct.lexbor_array_t, ptr %3, i32 0, i32 2
  %5 = load i64, ptr %4, align 8
  ret i64 %5
}

; Function Attrs: nounwind uwtable
define hidden void @lxb_html_tree_generate_all_implied_end_tags_thoroughly(ptr noundef %0, i64 noundef %1, i64 noundef %2) #0 {
  %4 = alloca ptr, align 8
  %5 = alloca i64, align 8
  %6 = alloca i64, align 8
  %7 = alloca ptr, align 8
  store ptr %0, ptr %4, align 8
  store i64 %1, ptr %5, align 8
  store i64 %2, ptr %6, align 8
  br label %8

8:                                                ; preds = %37, %3
  %9 = load ptr, ptr %4, align 8
  %10 = getelementptr inbounds %struct.lxb_html_tree, ptr %9, i32 0, i32 4
  %11 = load ptr, ptr %10, align 8
  %12 = call i64 @lexbor_array_length(ptr noundef %11)
  %13 = icmp ne i64 %12, 0
  br i1 %13, label %14, label %38

14:                                               ; preds = %8
  %15 = load ptr, ptr %4, align 8
  %16 = call ptr @lxb_html_tree_current_node(ptr noundef %15)
  store ptr %16, ptr %7, align 8
  %17 = load ptr, ptr %7, align 8
  %18 = getelementptr inbounds %struct.lxb_dom_node, ptr %17, i32 0, i32 1
  %19 = load i64, ptr %18, align 8
  switch i64 %19, label %36 [
    i64 35, label %20
    i64 41, label %20
    i64 44, label %20
    i64 53, label %20
    i64 113, label %20
    i64 142, label %20
    i64 143, label %20
    i64 145, label %20
    i64 154, label %20
    i64 155, label %20
    i64 156, label %20
    i64 157, label %20
    i64 177, label %20
    i64 178, label %20
    i64 182, label %20
    i64 183, label %20
    i64 184, label %20
    i64 187, label %20
  ]

20:                                               ; preds = %14, %14, %14, %14, %14, %14, %14, %14, %14, %14, %14, %14, %14, %14, %14, %14, %14, %14
  %21 = load ptr, ptr %7, align 8
  %22 = getelementptr inbounds %struct.lxb_dom_node, ptr %21, i32 0, i32 1
  %23 = load i64, ptr %22, align 8
  %24 = load i64, ptr %5, align 8
  %25 = icmp eq i64 %23, %24
  br i1 %25, label %26, label %33

26:                                               ; preds = %20
  %27 = load ptr, ptr %7, align 8
  %28 = getelementptr inbounds %struct.lxb_dom_node, ptr %27, i32 0, i32 3
  %29 = load i64, ptr %28, align 8
  %30 = load i64, ptr %6, align 8
  %31 = icmp eq i64 %29, %30
  br i1 %31, label %32, label %33

32:                                               ; preds = %26
  br label %38

33:                                               ; preds = %26, %20
  %34 = load ptr, ptr %4, align 8
  %35 = call ptr @lxb_html_tree_open_elements_pop(ptr noundef %34)
  br label %37

36:                                               ; preds = %14
  br label %38

37:                                               ; preds = %33
  br label %8

38:                                               ; preds = %36, %32, %8
  ret void
}